; ModuleID = '41/983.cpp'
source_filename = "41/983.cpp"
target datalayout = "e-m:e-p270:32:32-p271:32:32-p272:64:64-i64:64-f80:128-n8:16:32:64-S128"
target triple = "x86_64-pc-linux-gnu"

%"class.std::ios_base::Init" = type { i8 }
%"class.std::basic_ostream" = type { i32 (...)**, %"class.std::basic_ios" }
%"class.std::basic_ios" = type { %"class.std::ios_base", %"class.std::basic_ostream"*, i8, i8, %"class.std::basic_streambuf"*, %"class.std::ctype"*, %"class.std::num_put"*, %"class.std::num_get"* }
%"class.std::ios_base" = type { i32 (...)**, i64, i64, i32, i32, i32, %"struct.std::ios_base::_Callback_list"*, %"struct.std::ios_base::_Words", [8 x %"struct.std::ios_base::_Words"], i32, %"struct.std::ios_base::_Words"*, %"class.std::locale" }
%"struct.std::ios_base::_Callback_list" = type { %"struct.std::ios_base::_Callback_list"*, void (i32, %"class.std::ios_base"*, i32)*, i32, i32 }
%"struct.std::ios_base::_Words" = type { i8*, i64 }
%"class.std::locale" = type { %"class.std::locale::_Impl"* }
%"class.std::locale::_Impl" = type { i32, %"class.std::locale::facet"**, i64, %"class.std::locale::facet"**, i8** }
%"class.std::locale::facet" = type <{ i32 (...)**, i32, [4 x i8] }>
%"class.std::basic_streambuf" = type { i32 (...)**, i8*, i8*, i8*, i8*, i8*, i8*, %"class.std::locale" }
%"class.std::ctype" = type <{ %"class.std::locale::facet.base", [4 x i8], %struct.__locale_struct*, i8, [7 x i8], i32*, i32*, i16*, i8, [256 x i8], [256 x i8], i8, [6 x i8] }>
%"class.std::locale::facet.base" = type <{ i32 (...)**, i32 }>
%struct.__locale_struct = type { [13 x %struct.__locale_data*], i16*, i32*, i32*, [13 x i8*] }
%struct.__locale_data = type opaque
%"class.std::num_put" = type { %"class.std::locale::facet.base", [4 x i8] }
%"class.std::num_get" = type { %"class.std::locale::facet.base", [4 x i8] }

@_ZStL8__ioinit = internal global %"class.std::ios_base::Init" zeroinitializer, align 1
@__dso_handle = external hidden global i8
@_ZSt4cout = external dso_local global %"class.std::basic_ostream", align 8
@.str = private unnamed_addr constant [2 x i8] c" \00", align 1
@llvm.global_ctors = appending global [1 x { i32, void ()*, i8* }] [{ i32, void ()*, i8* } { i32 65535, void ()* @_GLOBAL__sub_I_983.cpp, i8* null }]

; Function Attrs: noinline uwtable
define internal void @__cxx_global_var_init() #0 section ".text.startup" {
  call void @_ZNSt8ios_base4InitC1Ev(%"class.std::ios_base::Init"* @_ZStL8__ioinit)
  %1 = call i32 @__cxa_atexit(void (i8*)* bitcast (void (%"class.std::ios_base::Init"*)* @_ZNSt8ios_base4InitD1Ev to void (i8*)*), i8* getelementptr inbounds (%"class.std::ios_base::Init", %"class.std::ios_base::Init"* @_ZStL8__ioinit, i32 0, i32 0), i8* @__dso_handle) #3
  ret void
}

declare dso_local void @_ZNSt8ios_base4InitC1Ev(%"class.std::ios_base::Init"*) unnamed_addr #1

; Function Attrs: nounwind
declare dso_local void @_ZNSt8ios_base4InitD1Ev(%"class.std::ios_base::Init"*) unnamed_addr #2

; Function Attrs: nounwind
declare dso_local i32 @__cxa_atexit(void (i8*)*, i8*, i8*) #3

; Function Attrs: noinline norecurse uwtable
define dso_local i32 @main() #4 {
  %1 = alloca i32, align 4
  %2 = alloca i32, align 4
  %3 = alloca i32, align 4
  %4 = alloca i32, align 4
  %5 = alloca i32, align 4
  %6 = alloca i32, align 4
  %7 = alloca i32, align 4
  %8 = alloca i32, align 4
  %9 = alloca i32, align 4
  %10 = alloca i32, align 4
  %11 = alloca i32, align 4
  %12 = alloca [6 x i32], align 16
  store i32 0, i32* %1, align 4
  store i32 1, i32* %7, align 4
  br label %13

13:                                               ; preds = %164, %0
  %14 = load i32, i32* %7, align 4
  %15 = icmp sle i32 %14, 5
  br i1 %15, label %16, label %167

16:                                               ; preds = %13
  %17 = load i32, i32* %7, align 4
  store i32 %17, i32* %2, align 4
  store i32 1, i32* %8, align 4
  br label %18

18:                                               ; preds = %160, %16
  %19 = load i32, i32* %8, align 4
  %20 = icmp sle i32 %19, 5
  br i1 %20, label %21, label %163

21:                                               ; preds = %18
  %22 = load i32, i32* %8, align 4
  store i32 %22, i32* %3, align 4
  store i32 1, i32* %9, align 4
  br label %23

23:                                               ; preds = %156, %21
  %24 = load i32, i32* %9, align 4
  %25 = icmp sle i32 %24, 5
  br i1 %25, label %26, label %159

26:                                               ; preds = %23
  %27 = load i32, i32* %9, align 4
  store i32 %27, i32* %4, align 4
  store i32 1, i32* %10, align 4
  br label %28

28:                                               ; preds = %152, %26
  %29 = load i32, i32* %10, align 4
  %30 = icmp sle i32 %29, 5
  br i1 %30, label %31, label %155

31:                                               ; preds = %28
  %32 = load i32, i32* %10, align 4
  store i32 %32, i32* %5, align 4
  store i32 1, i32* %11, align 4
  br label %33

33:                                               ; preds = %148, %31
  %34 = load i32, i32* %11, align 4
  %35 = icmp sle i32 %34, 5
  br i1 %35, label %36, label %151

36:                                               ; preds = %33
  %37 = load i32, i32* %11, align 4
  store i32 %37, i32* %6, align 4
  %38 = load i32, i32* %2, align 4
  %39 = load i32, i32* %3, align 4
  %40 = icmp ne i32 %38, %39
  br i1 %40, label %41, label %147

41:                                               ; preds = %36
  %42 = load i32, i32* %2, align 4
  %43 = load i32, i32* %4, align 4
  %44 = icmp ne i32 %42, %43
  br i1 %44, label %45, label %147

45:                                               ; preds = %41
  %46 = load i32, i32* %2, align 4
  %47 = load i32, i32* %5, align 4
  %48 = icmp ne i32 %46, %47
  br i1 %48, label %49, label %147

49:                                               ; preds = %45
  %50 = load i32, i32* %2, align 4
  %51 = load i32, i32* %6, align 4
  %52 = icmp ne i32 %50, %51
  br i1 %52, label %53, label %147

53:                                               ; preds = %49
  %54 = load i32, i32* %3, align 4
  %55 = load i32, i32* %4, align 4
  %56 = icmp ne i32 %54, %55
  br i1 %56, label %57, label %147

57:                                               ; preds = %53
  %58 = load i32, i32* %3, align 4
  %59 = load i32, i32* %5, align 4
  %60 = icmp ne i32 %58, %59
  br i1 %60, label %61, label %147

61:                                               ; preds = %57
  %62 = load i32, i32* %3, align 4
  %63 = load i32, i32* %6, align 4
  %64 = icmp ne i32 %62, %63
  br i1 %64, label %65, label %147

65:                                               ; preds = %61
  %66 = load i32, i32* %4, align 4
  %67 = load i32, i32* %5, align 4
  %68 = icmp ne i32 %66, %67
  br i1 %68, label %69, label %147

69:                                               ; preds = %65
  %70 = load i32, i32* %4, align 4
  %71 = load i32, i32* %6, align 4
  %72 = icmp ne i32 %70, %71
  br i1 %72, label %73, label %147

73:                                               ; preds = %69
  %74 = load i32, i32* %5, align 4
  %75 = load i32, i32* %6, align 4
  %76 = icmp ne i32 %74, %75
  br i1 %76, label %77, label %147

77:                                               ; preds = %73
  %78 = load i32, i32* %6, align 4
  %79 = icmp ne i32 %78, 2
  br i1 %79, label %80, label %147

80:                                               ; preds = %77
  %81 = load i32, i32* %6, align 4
  %82 = icmp ne i32 %81, 3
  br i1 %82, label %83, label %147

83:                                               ; preds = %80
  %84 = load i32, i32* %6, align 4
  %85 = icmp eq i32 %84, 1
  %86 = zext i1 %85 to i32
  %87 = load i32, i32* %2, align 4
  %88 = sext i32 %87 to i64
  %89 = getelementptr inbounds [6 x i32], [6 x i32]* %12, i64 0, i64 %88
  store i32 %86, i32* %89, align 4
  %90 = load i32, i32* %3, align 4
  %91 = icmp eq i32 %90, 2
  %92 = zext i1 %91 to i32
  %93 = load i32, i32* %3, align 4
  %94 = sext i32 %93 to i64
  %95 = getelementptr inbounds [6 x i32], [6 x i32]* %12, i64 0, i64 %94
  store i32 %92, i32* %95, align 4
  %96 = load i32, i32* %2, align 4
  %97 = icmp eq i32 %96, 5
  %98 = zext i1 %97 to i32
  %99 = load i32, i32* %4, align 4
  %100 = sext i32 %99 to i64
  %101 = getelementptr inbounds [6 x i32], [6 x i32]* %12, i64 0, i64 %100
  store i32 %98, i32* %101, align 4
  %102 = load i32, i32* %4, align 4
  %103 = icmp ne i32 %102, 1
  %104 = zext i1 %103 to i32
  %105 = load i32, i32* %5, align 4
  %106 = sext i32 %105 to i64
  %107 = getelementptr inbounds [6 x i32], [6 x i32]* %12, i64 0, i64 %106
  store i32 %104, i32* %107, align 4
  %108 = load i32, i32* %5, align 4
  %109 = icmp eq i32 %108, 1
  %110 = zext i1 %109 to i32
  %111 = load i32, i32* %6, align 4
  %112 = sext i32 %111 to i64
  %113 = getelementptr inbounds [6 x i32], [6 x i32]* %12, i64 0, i64 %112
  store i32 %110, i32* %113, align 4
  %114 = getelementptr inbounds [6 x i32], [6 x i32]* %12, i64 0, i64 1
  %115 = load i32, i32* %114, align 4
  %116 = icmp eq i32 %115, 1
  br i1 %116, label %117, label %146

117:                                              ; preds = %83
  %118 = getelementptr inbounds [6 x i32], [6 x i32]* %12, i64 0, i64 2
  %119 = load i32, i32* %118, align 8
  %120 = icmp eq i32 %119, 1
  br i1 %120, label %121, label %146

121:                                              ; preds = %117
  %122 = getelementptr inbounds [6 x i32], [6 x i32]* %12, i64 0, i64 3
  %123 = load i32, i32* %122, align 4
  %124 = getelementptr inbounds [6 x i32], [6 x i32]* %12, i64 0, i64 4
  %125 = load i32, i32* %124, align 16
  %126 = add nsw i32 %123, %125
  %127 = getelementptr inbounds [6 x i32], [6 x i32]* %12, i64 0, i64 5
  %128 = load i32, i32* %127, align 4
  %129 = add nsw i32 %126, %128
  %130 = icmp eq i32 %129, 0
  br i1 %130, label %131, label %146

131:                                              ; preds = %121
  %132 = load i32, i32* %2, align 4
  %133 = call dereferenceable(272) %"class.std::basic_ostream"* @_ZNSolsEi(%"class.std::basic_ostream"* @_ZSt4cout, i32 %132)
  %134 = call dereferenceable(272) %"class.std::basic_ostream"* @_ZStlsISt11char_traitsIcEERSt13basic_ostreamIcT_ES5_PKc(%"class.std::basic_ostream"* dereferenceable(272) %133, i8* getelementptr inbounds ([2 x i8], [2 x i8]* @.str, i64 0, i64 0))
  %135 = load i32, i32* %3, align 4
  %136 = call dereferenceable(272) %"class.std::basic_ostream"* @_ZNSolsEi(%"class.std::basic_ostream"* %134, i32 %135)
  %137 = call dereferenceable(272) %"class.std::basic_ostream"* @_ZStlsISt11char_traitsIcEERSt13basic_ostreamIcT_ES5_PKc(%"class.std::basic_ostream"* dereferenceable(272) %136, i8* getelementptr inbounds ([2 x i8], [2 x i8]* @.str, i64 0, i64 0))
  %138 = load i32, i32* %4, align 4
  %139 = call dereferenceable(272) %"class.std::basic_ostream"* @_ZNSolsEi(%"class.std::basic_ostream"* %137, i32 %138)
  %140 = call dereferenceable(272) %"class.std::basic_ostream"* @_ZStlsISt11char_traitsIcEERSt13basic_ostreamIcT_ES5_PKc(%"class.std::basic_ostream"* dereferenceable(272) %139, i8* getelementptr inbounds ([2 x i8], [2 x i8]* @.str, i64 0, i64 0))
  %141 = load i32, i32* %5, align 4
  %142 = call dereferenceable(272) %"class.std::basic_ostream"* @_ZNSolsEi(%"class.std::basic_ostream"* %140, i32 %141)
  %143 = call dereferenceable(272) %"class.std::basic_ostream"* @_ZStlsISt11char_traitsIcEERSt13basic_ostreamIcT_ES5_PKc(%"class.std::basic_ostream"* dereferenceable(272) %142, i8* getelementptr inbounds ([2 x i8], [2 x i8]* @.str, i64 0, i64 0))
  %144 = load i32, i32* %6, align 4
  %145 = call dereferenceable(272) %"class.std::basic_ostream"* @_ZNSolsEi(%"class.std::basic_ostream"* %143, i32 %144)
  br label %146

146:                                              ; preds = %131, %121, %117, %83
  br label %147

147:                                              ; preds = %146, %80, %77, %73, %69, %65, %61, %57, %53, %49, %45, %41, %36
  br label %148

148:                                              ; preds = %147
  %149 = load i32, i32* %11, align 4
  %150 = add nsw i32 %149, 1
  store i32 %150, i32* %11, align 4
  br label %33

151:                                              ; preds = %33
  br label %152

152:                                              ; preds = %151
  %153 = load i32, i32* %10, align 4
  %154 = add nsw i32 %153, 1
  store i32 %154, i32* %10, align 4
  br label %28

155:                                              ; preds = %28
  br label %156

156:                                              ; preds = %155
  %157 = load i32, i32* %9, align 4
  %158 = add nsw i32 %157, 1
  store i32 %158, i32* %9, align 4
  br label %23

159:                                              ; preds = %23
  br label %160

160:                                              ; preds = %159
  %161 = load i32, i32* %8, align 4
  %162 = add nsw i32 %161, 1
  store i32 %162, i32* %8, align 4
  br label %18

163:                                              ; preds = %18
  br label %164

164:                                              ; preds = %163
  %165 = load i32, i32* %7, align 4
  %166 = add nsw i32 %165, 1
  store i32 %166, i32* %7, align 4
  br label %13

167:                                              ; preds = %13
  ret i32 0
}

declare dso_local dereferenceable(272) %"class.std::basic_ostream"* @_ZStlsISt11char_traitsIcEERSt13basic_ostreamIcT_ES5_PKc(%"class.std::basic_ostream"* dereferenceable(272), i8*) #1

declare dso_local dereferenceable(272) %"class.std::basic_ostream"* @_ZNSolsEi(%"class.std::basic_ostream"*, i32) #1

; Function Attrs: noinline uwtable
define internal void @_GLOBAL__sub_I_983.cpp() #0 section ".text.startup" {
  call void @__cxx_global_var_init()
  ret void
}


!llvm.module.flags = !{!0}
!llvm.ident = !{!1}

!0 = !{i32 1, !"wchar_size", i32 4}
!1 = !{!"clang version 10.0.0-4ubuntu1 "}
