; ModuleID = 'source-C-CXX/40/983.cpp'
source_filename = "source-C-CXX/40/983.cpp"
target datalayout = "e-m:e-p270:32:32-p271:32:32-p272:64:64-i64:64-f80:128-n8:16:32:64-S128"
target triple = "x86_64-pc-linux-gnu"

%"class.std::ios_base::Init" = type { i8 }
%"class.std::basic_ostream" = type { i32 (...)**, %"class.std::basic_ios" }
%"class.std::basic_ios" = type { %"class.std::ios_base", %"class.std::basic_ostream"*, i8, i8, %"class.std::basic_streambuf"*, %"class.std::ctype"*, %"class.std::num_put"*, %"class.std::num_get"* }
%"class.std::ios_base" = type { i32 (...)**, i64, i64, i32, i32, i32, %"struct.std::ios_base::_Callback_list"*, %"struct.std::ios_base::_Words", [8 x %"struct.std::ios_base::_Words"], i32, %"struct.std::ios_base::_Words"*, %"class.std::locale" }
%"struct.std::ios_base::_Callback_list" = type { %"struct.std::ios_base::_Callback_list"*, void (i32, %"class.std::ios_base"*, i32)*, i32, i32 }
%"struct.std::ios_base::_Words" = type { i8*, i64 }
%"class.std::locale" = type { %"class.std::locale::_Impl"* }
%"class.std::locale::_Impl" = type { i32, %"class.std::locale::facet"**, i64, %"class.std::locale::facet"**, i8** }
%"class.std::locale::facet" = type <{ i32 (...)**, i32, [4 x i8] }>
%"class.std::basic_streambuf" = type { i32 (...)**, i8*, i8*, i8*, i8*, i8*, i8*, %"class.std::locale" }
%"class.std::ctype" = type <{ %"class.std::locale::facet.base", [4 x i8], %struct.__locale_struct*, i8, [7 x i8], i32*, i32*, i16*, i8, [256 x i8], [256 x i8], i8, [6 x i8] }>
%"class.std::locale::facet.base" = type <{ i32 (...)**, i32 }>
%struct.__locale_struct = type { [13 x %struct.__locale_data*], i16*, i32*, i32*, [13 x i8*] }
%struct.__locale_data = type opaque
%"class.std::num_put" = type { %"class.std::locale::facet.base", [4 x i8] }
%"class.std::num_get" = type { %"class.std::locale::facet.base", [4 x i8] }

@_ZStL8__ioinit = internal global %"class.std::ios_base::Init" zeroinitializer, align 1
@__dso_handle = external hidden global i8
@_ZSt4cout = external global %"class.std::basic_ostream", align 8
@.str = private unnamed_addr constant [2 x i8] c" \00", align 1
@llvm.global_ctors = appending global [1 x { i32, void ()*, i8* }] [{ i32, void ()*, i8* } { i32 65535, void ()* @_GLOBAL__sub_I_983.cpp, i8* null }]

declare void @_ZNSt8ios_base4InitC1Ev(%"class.std::ios_base::Init"* nonnull align 1 dereferenceable(1)) unnamed_addr #0

; Function Attrs: nounwind
declare void @_ZNSt8ios_base4InitD1Ev(%"class.std::ios_base::Init"* nonnull align 1 dereferenceable(1)) unnamed_addr #1

; Function Attrs: nofree nounwind
declare i32 @__cxa_atexit(void (i8*)*, i8*, i8*) local_unnamed_addr #2

; Function Attrs: mustprogress norecurse sspstrong uwtable
define dso_local i32 @main() local_unnamed_addr #3 {
  %1 = alloca [6 x i32], align 16
  %2 = bitcast [6 x i32]* %1 to i8*
  call void @llvm.lifetime.start.p0i8(i64 24, i8* nonnull %2) #6
  %3 = getelementptr inbounds [6 x i32], [6 x i32]* %1, i64 0, i64 1
  %4 = getelementptr inbounds [6 x i32], [6 x i32]* %1, i64 0, i64 2
  %5 = getelementptr inbounds [6 x i32], [6 x i32]* %1, i64 0, i64 3
  %6 = getelementptr inbounds [6 x i32], [6 x i32]* %1, i64 0, i64 4
  %7 = getelementptr inbounds [6 x i32], [6 x i32]* %1, i64 0, i64 5
  br label %8

8:                                                ; preds = %0, %95
  %9 = phi i64 [ 1, %0 ], [ %96, %95 ]
  %10 = getelementptr inbounds [6 x i32], [6 x i32]* %1, i64 0, i64 %9
  %11 = icmp eq i64 %9, 5
  %12 = zext i1 %11 to i32
  %13 = trunc i64 %9 to i32
  br label %14

14:                                               ; preds = %8, %92
  %15 = phi i64 [ 1, %8 ], [ %93, %92 ]
  %16 = icmp eq i64 %9, %15
  %17 = icmp eq i64 %15, 2
  %18 = zext i1 %17 to i32
  %19 = getelementptr inbounds [6 x i32], [6 x i32]* %1, i64 0, i64 %15
  br i1 %16, label %92, label %20

20:                                               ; preds = %14
  %21 = trunc i64 %15 to i32
  br label %22

22:                                               ; preds = %20, %89
  %23 = phi i64 [ 1, %20 ], [ %90, %89 ]
  %24 = icmp eq i64 %9, %23
  %25 = icmp eq i64 %15, %23
  %26 = getelementptr inbounds [6 x i32], [6 x i32]* %1, i64 0, i64 %23
  %27 = icmp ne i64 %23, 1
  %28 = zext i1 %27 to i32
  %29 = or i1 %24, %25
  br i1 %29, label %89, label %30

30:                                               ; preds = %22
  %31 = trunc i64 %23 to i32
  br label %32

32:                                               ; preds = %30, %86
  %33 = phi i64 [ 1, %30 ], [ %87, %86 ]
  %34 = icmp eq i64 %9, %33
  %35 = icmp eq i64 %15, %33
  %36 = icmp eq i64 %23, %33
  %37 = getelementptr inbounds [6 x i32], [6 x i32]* %1, i64 0, i64 %33
  %38 = icmp eq i64 %33, 1
  %39 = zext i1 %38 to i32
  %40 = or i1 %36, %35
  %41 = or i1 %40, %34
  br i1 %41, label %86, label %42

42:                                               ; preds = %32
  %43 = trunc i64 %33 to i32
  br label %44

44:                                               ; preds = %42, %83
  %45 = phi i64 [ 1, %42 ], [ %84, %83 ]
  %46 = icmp eq i64 %9, %45
  %47 = icmp eq i64 %15, %45
  %48 = select i1 %46, i1 true, i1 %47
  %49 = icmp eq i64 %23, %45
  %50 = select i1 %48, i1 true, i1 %49
  br i1 %50, label %83, label %51

51:                                               ; preds = %44
  %52 = icmp ne i64 %33, %45
  %53 = trunc i64 %45 to i32
  %54 = and i32 %53, 2147483646
  %55 = icmp ne i32 %54, 2
  %56 = and i1 %52, %55
  br i1 %56, label %57, label %83

57:                                               ; preds = %51
  %58 = icmp eq i64 %45, 1
  %59 = zext i1 %58 to i32
  store i32 %59, i32* %10, align 4, !tbaa !5
  store i32 %18, i32* %19, align 4, !tbaa !5
  store i32 %12, i32* %26, align 4, !tbaa !5
  store i32 %28, i32* %37, align 4, !tbaa !5
  %60 = getelementptr inbounds [6 x i32], [6 x i32]* %1, i64 0, i64 %45
  store i32 %39, i32* %60, align 4, !tbaa !5
  %61 = load i32, i32* %3, align 4, !tbaa !5
  %62 = icmp eq i32 %61, 1
  %63 = load i32, i32* %4, align 8
  %64 = icmp eq i32 %63, 1
  %65 = select i1 %62, i1 %64, i1 false
  br i1 %65, label %66, label %83

66:                                               ; preds = %57
  %67 = load i32, i32* %5, align 4, !tbaa !5
  %68 = load i32, i32* %6, align 16, !tbaa !5
  %69 = add nsw i32 %68, %67
  %70 = load i32, i32* %7, align 4, !tbaa !5
  %71 = sub i32 0, %70
  %72 = icmp eq i32 %69, %71
  br i1 %72, label %73, label %83

73:                                               ; preds = %66
  %74 = tail call nonnull align 8 dereferenceable(8) %"class.std::basic_ostream"* @_ZNSolsEi(%"class.std::basic_ostream"* nonnull align 8 dereferenceable(8) @_ZSt4cout, i32 %13)
  %75 = tail call nonnull align 8 dereferenceable(8) %"class.std::basic_ostream"* @_ZSt16__ostream_insertIcSt11char_traitsIcEERSt13basic_ostreamIT_T0_ES6_PKS3_l(%"class.std::basic_ostream"* nonnull align 8 dereferenceable(8) %74, i8* nonnull getelementptr inbounds ([2 x i8], [2 x i8]* @.str, i64 0, i64 0), i64 1)
  %76 = tail call nonnull align 8 dereferenceable(8) %"class.std::basic_ostream"* @_ZNSolsEi(%"class.std::basic_ostream"* nonnull align 8 dereferenceable(8) %74, i32 %21)
  %77 = tail call nonnull align 8 dereferenceable(8) %"class.std::basic_ostream"* @_ZSt16__ostream_insertIcSt11char_traitsIcEERSt13basic_ostreamIT_T0_ES6_PKS3_l(%"class.std::basic_ostream"* nonnull align 8 dereferenceable(8) %76, i8* nonnull getelementptr inbounds ([2 x i8], [2 x i8]* @.str, i64 0, i64 0), i64 1)
  %78 = tail call nonnull align 8 dereferenceable(8) %"class.std::basic_ostream"* @_ZNSolsEi(%"class.std::basic_ostream"* nonnull align 8 dereferenceable(8) %76, i32 %31)
  %79 = tail call nonnull align 8 dereferenceable(8) %"class.std::basic_ostream"* @_ZSt16__ostream_insertIcSt11char_traitsIcEERSt13basic_ostreamIT_T0_ES6_PKS3_l(%"class.std::basic_ostream"* nonnull align 8 dereferenceable(8) %78, i8* nonnull getelementptr inbounds ([2 x i8], [2 x i8]* @.str, i64 0, i64 0), i64 1)
  %80 = tail call nonnull align 8 dereferenceable(8) %"class.std::basic_ostream"* @_ZNSolsEi(%"class.std::basic_ostream"* nonnull align 8 dereferenceable(8) %78, i32 %43)
  %81 = tail call nonnull align 8 dereferenceable(8) %"class.std::basic_ostream"* @_ZSt16__ostream_insertIcSt11char_traitsIcEERSt13basic_ostreamIT_T0_ES6_PKS3_l(%"class.std::basic_ostream"* nonnull align 8 dereferenceable(8) %80, i8* nonnull getelementptr inbounds ([2 x i8], [2 x i8]* @.str, i64 0, i64 0), i64 1)
  %82 = tail call nonnull align 8 dereferenceable(8) %"class.std::basic_ostream"* @_ZNSolsEi(%"class.std::basic_ostream"* nonnull align 8 dereferenceable(8) %80, i32 %53)
  br label %83

83:                                               ; preds = %44, %51, %73, %66, %57
  %84 = add nuw nsw i64 %45, 1
  %85 = icmp eq i64 %84, 6
  br i1 %85, label %86, label %44, !llvm.loop !9

86:                                               ; preds = %83, %32
  %87 = add nuw nsw i64 %33, 1
  %88 = icmp eq i64 %87, 6
  br i1 %88, label %89, label %32, !llvm.loop !11

89:                                               ; preds = %86, %22
  %90 = add nuw nsw i64 %23, 1
  %91 = icmp eq i64 %90, 6
  br i1 %91, label %92, label %22, !llvm.loop !12

92:                                               ; preds = %89, %14
  %93 = add nuw nsw i64 %15, 1
  %94 = icmp eq i64 %93, 6
  br i1 %94, label %95, label %14, !llvm.loop !13

95:                                               ; preds = %92
  %96 = add nuw nsw i64 %9, 1
  %97 = icmp eq i64 %96, 6
  br i1 %97, label %98, label %8, !llvm.loop !14

98:                                               ; preds = %95
  call void @llvm.lifetime.end.p0i8(i64 24, i8* nonnull %2) #6
  ret i32 0
}

; Function Attrs: argmemonly mustprogress nofree nosync nounwind willreturn
declare void @llvm.lifetime.start.p0i8(i64 immarg, i8* nocapture) #4

declare nonnull align 8 dereferenceable(8) %"class.std::basic_ostream"* @_ZNSolsEi(%"class.std::basic_ostream"* nonnull align 8 dereferenceable(8), i32) local_unnamed_addr #0

; Function Attrs: argmemonly mustprogress nofree nosync nounwind willreturn
declare void @llvm.lifetime.end.p0i8(i64 immarg, i8* nocapture) #4

declare nonnull align 8 dereferenceable(8) %"class.std::basic_ostream"* @_ZSt16__ostream_insertIcSt11char_traitsIcEERSt13basic_ostreamIT_T0_ES6_PKS3_l(%"class.std::basic_ostream"* nonnull align 8 dereferenceable(8), i8*, i64) local_unnamed_addr #0

; Function Attrs: sspstrong uwtable
define internal void @_GLOBAL__sub_I_983.cpp() #5 section ".text.startup" {
  tail call void @_ZNSt8ios_base4InitC1Ev(%"class.std::ios_base::Init"* nonnull align 1 dereferenceable(1) @_ZStL8__ioinit)
  %1 = tail call i32 @__cxa_atexit(void (i8*)* bitcast (void (%"class.std::ios_base::Init"*)* @_ZNSt8ios_base4InitD1Ev to void (i8*)*), i8* getelementptr inbounds (%"class.std::ios_base::Init", %"class.std::ios_base::Init"* @_ZStL8__ioinit, i64 0, i32 0), i8* nonnull @__dso_handle) #6
  ret void
}


!llvm.module.flags = !{!0, !1, !2, !3}
!llvm.ident = !{!4}

!0 = !{i32 1, !"wchar_size", i32 4}
!1 = !{i32 7, !"PIC Level", i32 2}
!2 = !{i32 7, !"PIE Level", i32 2}
!3 = !{i32 7, !"uwtable", i32 1}
!4 = !{!"clang version 13.0.0"}
!5 = !{!6, !6, i64 0}
!6 = !{!"int", !7, i64 0}
!7 = !{!"omnipotent char", !8, i64 0}
!8 = !{!"Simple C++ TBAA"}
!9 = distinct !{!9, !10}
!10 = !{!"llvm.loop.mustprogress"}
!11 = distinct !{!11, !10}
!12 = distinct !{!12, !10}
!13 = distinct !{!13, !10}
!14 = distinct !{!14, !10}
